target datalayout = "e-m:e-p270:32:32-p271:32:32-p272:64:64-i64:64-i128:128-f80:128-n8:16:32:64-S128"
target triple = "x86_64-pc-linux-gnu"

%struct.sockaddr_in6 = type { i16, i16, i32, %struct.in6_addr, i32 }
%struct.in6_addr = type { %union.anon.8 }
%union.anon.8 = type { [4 x i32] }
%struct._mc_resp = type { ptr, ptr, i32, i32, ptr, ptr, ptr, [4 x %struct.iovec], i32, i8, i8, i8, i8, i8, i16, i16, i16, %struct.sockaddr_in6, i32, [1024 x i8] }
%struct.iovec = type { ptr, i64 }

; Function Attrs: nounwind uwtable
define dso_local void @resp_add_iov(ptr noundef %0, ptr noundef %1, i32 noundef %2) #0 {
  %4 = alloca ptr, align 8
  %5 = alloca ptr, align 8
  %6 = alloca i32, align 4
  %7 = alloca i32, align 4
  store ptr %0, ptr %4, align 8, !tbaa !132
  store ptr %1, ptr %5, align 8, !tbaa !68
  store i32 %2, ptr %6, align 4, !tbaa !8
  call void @llvm.lifetime.start.p0(i64 4, ptr %7) #15
  %8 = load ptr, ptr %4, align 8, !tbaa !132
  %9 = getelementptr inbounds nuw %struct._mc_resp, ptr %8, i32 0, i32 9
  %10 = load i8, ptr %9, align 4, !tbaa !148
  %11 = zext i8 %10 to i32
  store i32 %11, ptr %7, align 4, !tbaa !8
  %12 = load ptr, ptr %5, align 8, !tbaa !68
  %13 = load ptr, ptr %4, align 8, !tbaa !132
  %14 = getelementptr inbounds nuw %struct._mc_resp, ptr %13, i32 0, i32 7
  %15 = load i32, ptr %7, align 4, !tbaa !8
  %16 = sext i32 %15 to i64
  %17 = getelementptr inbounds [4 x %struct.iovec], ptr %14, i64 0, i64 %16
  %18 = getelementptr inbounds nuw %struct.iovec, ptr %17, i32 0, i32 0
  store ptr %12, ptr %18, align 8, !tbaa !152
  %19 = load i32, ptr %6, align 4, !tbaa !8
  %20 = sext i32 %19 to i64
  %21 = load ptr, ptr %4, align 8, !tbaa !132
  %22 = getelementptr inbounds nuw %struct._mc_resp, ptr %21, i32 0, i32 7
  %23 = load i32, ptr %7, align 4, !tbaa !8
  %24 = sext i32 %23 to i64
  %25 = getelementptr inbounds [4 x %struct.iovec], ptr %22, i64 0, i64 %24
  %26 = getelementptr inbounds nuw %struct.iovec, ptr %25, i32 0, i32 1
  store i64 %20, ptr %26, align 8, !tbaa !154
  %27 = load ptr, ptr %4, align 8, !tbaa !132
  %28 = getelementptr inbounds nuw %struct._mc_resp, ptr %27, i32 0, i32 9
  %29 = load i8, ptr %28, align 4, !tbaa !148
  %30 = add i8 %29, 1
  store i8 %30, ptr %28, align 4, !tbaa !148
  %31 = load i32, ptr %6, align 4, !tbaa !8
  %32 = load ptr, ptr %4, align 8, !tbaa !132
  %33 = getelementptr inbounds nuw %struct._mc_resp, ptr %32, i32 0, i32 3
  %34 = load i32, ptr %33, align 4, !tbaa !147
  %35 = add nsw i32 %34, %31
  store i32 %35, ptr %33, align 4, !tbaa !147
  call void @llvm.lifetime.end.p0(i64 4, ptr %7) #15
  ret void
}