; Function Attrs: mustprogress nofree norecurse nosync nounwind willreturn memory(argmem: readwrite) uwtable
define dso_local void @resp_add_iov(ptr noundef captures(none) %0, ptr noundef %1, i32 noundef %2) local_unnamed_addr #15 {
  %4 = getelementptr inbounds nuw i8, ptr %0, i64 116
  %5 = load i8, ptr %4, align 4, !tbaa !162
  %6 = getelementptr inbounds nuw i8, ptr %0, i64 48
  %7 = zext i8 %5 to i64
  %8 = getelementptr inbounds nuw [4 x %struct.iovec], ptr %6, i64 0, i64 %7
  store ptr %1, ptr %8, align 8, !tbaa !122
  %9 = sext i32 %2 to i64
  %10 = getelementptr inbounds nuw i8, ptr %8, i64 8
  store i64 %9, ptr %10, align 8, !tbaa !124
  %11 = add i8 %5, 1
  store i8 %11, ptr %4, align 4, !tbaa !162
  %12 = getelementptr inbounds nuw i8, ptr %0, i64 20
  %13 = load i32, ptr %12, align 4, !tbaa !126
  %14 = add nsw i32 %13, %2
  store i32 %14, ptr %12, align 4, !tbaa !126
  ret void
}